; Function Attrs: nounwind uwtable
define noundef i32 @cli_bcapi_pdf_setobjflags(ptr nocapture noundef readonly %0, i32 noundef %1, i32 noundef %2) local_unnamed_addr #1 {
  %4 = getelementptr inbounds i8, ptr %0, i64 1056
  %5 = load i32, ptr %4, align 8
  %.not = icmp eq i32 %5, 0
  br i1 %.not, label %21, label %6

6:                                                ; preds = %3
  %7 = getelementptr inbounds i8, ptr %0, i64 1024
  %8 = load i32, ptr %7, align 8
  %.not10 = icmp ugt i32 %8, %1
  br i1 %.not10, label %9, label %21

9:                                                ; preds = %6
  %10 = getelementptr inbounds i8, ptr %0, i64 1032
  %11 = load ptr, ptr %10, align 8
  %12 = sext i32 %1 to i64
  %13 = getelementptr inbounds ptr, ptr %11, i64 %12
  %14 = load ptr, ptr %13, align 8
  %15 = getelementptr inbounds i8, ptr %14, i64 20
  %16 = load i32, ptr %15, align 4
  tail call void (ptr, ...) @cli_dbgmsg(ptr noundef nonnull @.str.121, i32 noundef %16, i32 noundef %2) #29
  %17 = load ptr, ptr %10, align 8
  %18 = getelementptr inbounds ptr, ptr %17, i64 %12
  %19 = load ptr, ptr %18, align 8
  %20 = getelementptr inbounds i8, ptr %19, i64 20
  store i32 %2, ptr %20, align 4
  br label %21

21:                                               ; preds = %3, %6, %9
  %.0 = phi i32 [ 0, %9 ], [ -1, %6 ], [ -1, %3 ]
  ret i32 %.0
}